target datalayout = "e-m:e-p270:32:32-p271:32:32-p272:64:64-i64:64-i128:128-f80:128-n8:16:32:64-S128"
target triple = "x86_64-pc-linux-gnu"

%struct.lxb_encoding_encode_t = type { ptr, ptr, i64, i64, ptr, i64, i32 }

@.str.2 = private unnamed_addr constant [4 x i8] c"\1B(B\00", align 1

; Function Attrs: nounwind uwtable
define hidden signext i8 @lxb_encoding_encode_iso_2022_jp_eof_single(ptr noundef %0, ptr noundef %1, ptr noundef %2) #0 {
  %4 = alloca i8, align 1
  %5 = alloca ptr, align 8
  %6 = alloca ptr, align 8
  %7 = alloca ptr, align 8
  store ptr %0, ptr %5, align 8
  store ptr %1, ptr %6, align 8
  store ptr %2, ptr %7, align 8
  %8 = load ptr, ptr %5, align 8
  %9 = getelementptr inbounds %struct.lxb_encoding_encode_t, ptr %8, i32 0, i32 6
  %10 = load i32, ptr %9, align 8
  %11 = icmp ne i32 %10, 0
  br i1 %11, label %12, label %28

12:                                               ; preds = %3
  %13 = load ptr, ptr %6, align 8
  %14 = load ptr, ptr %13, align 8
  %15 = getelementptr inbounds i8, ptr %14, i64 3
  %16 = load ptr, ptr %7, align 8
  %17 = icmp ugt ptr %15, %16
  br i1 %17, label %18, label %19

18:                                               ; preds = %12
  store i8 -2, ptr %4, align 1
  br label %29

19:                                               ; preds = %12
  %20 = load ptr, ptr %6, align 8
  %21 = load ptr, ptr %20, align 8
  call void @llvm.memcpy.p0.p0.i64(ptr align 1 %21, ptr align 1 @.str.2, i64 3, i1 false)
  %22 = load ptr, ptr %6, align 8
  %23 = load ptr, ptr %22, align 8
  %24 = getelementptr inbounds i8, ptr %23, i64 3
  %25 = load ptr, ptr %6, align 8
  store ptr %24, ptr %25, align 8
  %26 = load ptr, ptr %5, align 8
  %27 = getelementptr inbounds %struct.lxb_encoding_encode_t, ptr %26, i32 0, i32 6
  store i32 0, ptr %27, align 8
  store i8 3, ptr %4, align 1
  br label %29

28:                                               ; preds = %3
  store i8 0, ptr %4, align 1
  br label %29

29:                                               ; preds = %28, %19, %18
  %30 = load i8, ptr %4, align 1
  ret i8 %30
}