; Function Attrs: mustprogress nofree norecurse nosync nounwind willreturn memory(readwrite, inaccessiblemem: none) uwtable
define hidden noundef signext i8 @lxb_encoding_encode_iso_2022_jp_eof_single(ptr nocapture noundef %0, ptr nocapture noundef %1, ptr noundef readnone %2) local_unnamed_addr #3 {
  %4 = getelementptr inbounds i8, ptr %0, i64 48
  %5 = load i32, ptr %4, align 8
  %.not = icmp eq i32 %5, 0
  br i1 %.not, label %13, label %6

6:                                                ; preds = %3
  %7 = load ptr, ptr %1, align 8
  %8 = getelementptr inbounds i8, ptr %7, i64 3
  %9 = icmp ugt ptr %8, %2
  br i1 %9, label %13, label %10

10:                                               ; preds = %6
  tail call void @llvm.memcpy.p0.p0.i64(ptr noundef nonnull align 1 dereferenceable(3) %7, ptr noundef nonnull align 1 dereferenceable(3) @.str.2, i64 3, i1 false)
  %11 = load ptr, ptr %1, align 8
  %12 = getelementptr inbounds i8, ptr %11, i64 3
  store ptr %12, ptr %1, align 8
  store i32 0, ptr %4, align 8
  br label %13

13:                                               ; preds = %3, %6, %10
  %.0 = phi i8 [ 3, %10 ], [ -2, %6 ], [ 0, %3 ]
  ret i8 %.0
}